target datalayout = "e-m:e-p270:32:32-p271:32:32-p272:64:64-i64:64-i128:128-f80:128-n8:16:32:64-S128"
target triple = "x86_64-pc-linux-gnu"

%struct._lv_fpoint_t = type { float, float }
%struct._lv_vector_path_t = type { i32, %struct._lv_array_t, %struct._lv_array_t }
%struct._lv_array_t = type { ptr, i32, i32, i32, i8 }
%struct.lv_area_t = type { i32, i32, i32, i32 }

; Function Attrs: inlinehint nounwind uwtable
define internal void @lv_memzero(ptr noundef %0, i64 noundef %1) #4 {
  %3 = alloca ptr, align 8
  %4 = alloca i64, align 8
  store ptr %0, ptr %3, align 8, !tbaa !3
  store i64 %1, ptr %4, align 8, !tbaa !20
  %5 = load ptr, ptr %3, align 8, !tbaa !3
  %6 = load i64, ptr %4, align 8, !tbaa !20
  call void @lv_memset(ptr noundef %5, i8 noundef zeroext 0, i64 noundef %6)
  ret void
}

; Function Attrs: nounwind uwtable
define void @lv_vector_path_get_bounding(ptr noundef %0, ptr noundef %1) #0 {
  %3 = alloca ptr, align 8
  %4 = alloca ptr, align 8
  %5 = alloca i32, align 4
  %6 = alloca i32, align 4
  %7 = alloca ptr, align 8
  %8 = alloca float, align 4
  %9 = alloca float, align 4
  %10 = alloca float, align 4
  %11 = alloca float, align 4
  %12 = alloca i32, align 4
  store ptr %0, ptr %3, align 8, !tbaa !3
  store ptr %1, ptr %4, align 8, !tbaa !3
  br label %13

13:                                               ; preds = %2
  %14 = load ptr, ptr %3, align 8, !tbaa !3
  %15 = icmp ne ptr %14, null
  br i1 %15, label %20, label %16

16:                                               ; preds = %13
  br label %17

17:                                               ; preds = %16
  br label %18

18:                                               ; preds = %17
  br label %19

19:                                               ; preds = %18, %19
  br label %19

20:                                               ; preds = %13
  br label %21

21:                                               ; preds = %20
  br label %22

22:                                               ; preds = %21
  %23 = load ptr, ptr %4, align 8, !tbaa !3
  %24 = icmp ne ptr %23, null
  br i1 %24, label %29, label %25

25:                                               ; preds = %22
  br label %26

26:                                               ; preds = %25
  br label %27

27:                                               ; preds = %26
  br label %28

28:                                               ; preds = %27, %28
  br label %28

29:                                               ; preds = %22
  br label %30

30:                                               ; preds = %29
  call void @llvm.lifetime.start.p0(i64 4, ptr %5) #7
  %31 = load ptr, ptr %3, align 8, !tbaa !3
  %32 = getelementptr inbounds nuw %struct._lv_vector_path_t, ptr %31, i32 0, i32 2
  %33 = call i32 @lv_array_size(ptr noundef %32)
  store i32 %33, ptr %5, align 4, !tbaa !12
  %34 = load i32, ptr %5, align 4, !tbaa !12
  %35 = icmp eq i32 %34, 0
  br i1 %35, label %36, label %38

36:                                               ; preds = %30
  %37 = load ptr, ptr %4, align 8, !tbaa !3
  call void @lv_memzero(ptr noundef %37, i64 noundef 16)
  store i32 1, ptr %6, align 4
  br label %148

38:                                               ; preds = %30
  call void @llvm.lifetime.start.p0(i64 8, ptr %7) #7
  %39 = load ptr, ptr %3, align 8, !tbaa !3
  %40 = getelementptr inbounds nuw %struct._lv_vector_path_t, ptr %39, i32 0, i32 2
  %41 = call ptr @lv_array_front(ptr noundef %40)
  store ptr %41, ptr %7, align 8, !tbaa !3
  call void @llvm.lifetime.start.p0(i64 4, ptr %8) #7
  %42 = load ptr, ptr %7, align 8, !tbaa !3
  %43 = getelementptr inbounds %struct._lv_fpoint_t, ptr %42, i64 0
  %44 = getelementptr inbounds nuw %struct._lv_fpoint_t, ptr %43, i32 0, i32 0
  %45 = load float, ptr %44, align 4, !tbaa !7
  store float %45, ptr %8, align 4, !tbaa !10
  call void @llvm.lifetime.start.p0(i64 4, ptr %9) #7
  %46 = load ptr, ptr %7, align 8, !tbaa !3
  %47 = getelementptr inbounds %struct._lv_fpoint_t, ptr %46, i64 0
  %48 = getelementptr inbounds nuw %struct._lv_fpoint_t, ptr %47, i32 0, i32 0
  %49 = load float, ptr %48, align 4, !tbaa !7
  store float %49, ptr %9, align 4, !tbaa !10
  call void @llvm.lifetime.start.p0(i64 4, ptr %10) #7
  %50 = load ptr, ptr %7, align 8, !tbaa !3
  %51 = getelementptr inbounds %struct._lv_fpoint_t, ptr %50, i64 0
  %52 = getelementptr inbounds nuw %struct._lv_fpoint_t, ptr %51, i32 0, i32 1
  %53 = load float, ptr %52, align 4, !tbaa !11
  store float %53, ptr %10, align 4, !tbaa !10
  call void @llvm.lifetime.start.p0(i64 4, ptr %11) #7
  %54 = load ptr, ptr %7, align 8, !tbaa !3
  %55 = getelementptr inbounds %struct._lv_fpoint_t, ptr %54, i64 0
  %56 = getelementptr inbounds nuw %struct._lv_fpoint_t, ptr %55, i32 0, i32 1
  %57 = load float, ptr %56, align 4, !tbaa !11
  store float %57, ptr %11, align 4, !tbaa !10
  call void @llvm.lifetime.start.p0(i64 4, ptr %12) #7
  store i32 1, ptr %12, align 4, !tbaa !12
  br label %58

58:                                               ; preds = %128, %38
  %59 = load i32, ptr %12, align 4, !tbaa !12
  %60 = load i32, ptr %5, align 4, !tbaa !12
  %61 = icmp ult i32 %59, %60
  br i1 %61, label %63, label %62

62:                                               ; preds = %58
  store i32 14, ptr %6, align 4
  call void @llvm.lifetime.end.p0(i64 4, ptr %12) #7
  br label %131

63:                                               ; preds = %58
  %64 = load ptr, ptr %7, align 8, !tbaa !3
  %65 = load i32, ptr %12, align 4, !tbaa !12
  %66 = zext i32 %65 to i64
  %67 = getelementptr inbounds nuw %struct._lv_fpoint_t, ptr %64, i64 %66
  %68 = getelementptr inbounds nuw %struct._lv_fpoint_t, ptr %67, i32 0, i32 0
  %69 = load float, ptr %68, align 4, !tbaa !7
  %70 = load float, ptr %8, align 4, !tbaa !10
  %71 = fcmp olt float %69, %70
  br i1 %71, label %72, label %79

72:                                               ; preds = %63
  %73 = load ptr, ptr %7, align 8, !tbaa !3
  %74 = load i32, ptr %12, align 4, !tbaa !12
  %75 = zext i32 %74 to i64
  %76 = getelementptr inbounds nuw %struct._lv_fpoint_t, ptr %73, i64 %75
  %77 = getelementptr inbounds nuw %struct._lv_fpoint_t, ptr %76, i32 0, i32 0
  %78 = load float, ptr %77, align 4, !tbaa !7
  store float %78, ptr %8, align 4, !tbaa !10
  br label %79

79:                                               ; preds = %72, %63
  %80 = load ptr, ptr %7, align 8, !tbaa !3
  %81 = load i32, ptr %12, align 4, !tbaa !12
  %82 = zext i32 %81 to i64
  %83 = getelementptr inbounds nuw %struct._lv_fpoint_t, ptr %80, i64 %82
  %84 = getelementptr inbounds nuw %struct._lv_fpoint_t, ptr %83, i32 0, i32 1
  %85 = load float, ptr %84, align 4, !tbaa !11
  %86 = load float, ptr %10, align 4, !tbaa !10
  %87 = fcmp olt float %85, %86
  br i1 %87, label %88, label %95

88:                                               ; preds = %79
  %89 = load ptr, ptr %7, align 8, !tbaa !3
  %90 = load i32, ptr %12, align 4, !tbaa !12
  %91 = zext i32 %90 to i64
  %92 = getelementptr inbounds nuw %struct._lv_fpoint_t, ptr %89, i64 %91
  %93 = getelementptr inbounds nuw %struct._lv_fpoint_t, ptr %92, i32 0, i32 1
  %94 = load float, ptr %93, align 4, !tbaa !11
  store float %94, ptr %10, align 4, !tbaa !10
  br label %95

95:                                               ; preds = %88, %79
  %96 = load ptr, ptr %7, align 8, !tbaa !3
  %97 = load i32, ptr %12, align 4, !tbaa !12
  %98 = zext i32 %97 to i64
  %99 = getelementptr inbounds nuw %struct._lv_fpoint_t, ptr %96, i64 %98
  %100 = getelementptr inbounds nuw %struct._lv_fpoint_t, ptr %99, i32 0, i32 0
  %101 = load float, ptr %100, align 4, !tbaa !7
  %102 = load float, ptr %9, align 4, !tbaa !10
  %103 = fcmp ogt float %101, %102
  br i1 %103, label %104, label %111

104:                                              ; preds = %95
  %105 = load ptr, ptr %7, align 8, !tbaa !3
  %106 = load i32, ptr %12, align 4, !tbaa !12
  %107 = zext i32 %106 to i64
  %108 = getelementptr inbounds nuw %struct._lv_fpoint_t, ptr %105, i64 %107
  %109 = getelementptr inbounds nuw %struct._lv_fpoint_t, ptr %108, i32 0, i32 0
  %110 = load float, ptr %109, align 4, !tbaa !7
  store float %110, ptr %9, align 4, !tbaa !10
  br label %111

111:                                              ; preds = %104, %95
  %112 = load ptr, ptr %7, align 8, !tbaa !3
  %113 = load i32, ptr %12, align 4, !tbaa !12
  %114 = zext i32 %113 to i64
  %115 = getelementptr inbounds nuw %struct._lv_fpoint_t, ptr %112, i64 %114
  %116 = getelementptr inbounds nuw %struct._lv_fpoint_t, ptr %115, i32 0, i32 1
  %117 = load float, ptr %116, align 4, !tbaa !11
  %118 = load float, ptr %11, align 4, !tbaa !10
  %119 = fcmp ogt float %117, %118
  br i1 %119, label %120, label %127

120:                                              ; preds = %111
  %121 = load ptr, ptr %7, align 8, !tbaa !3
  %122 = load i32, ptr %12, align 4, !tbaa !12
  %123 = zext i32 %122 to i64
  %124 = getelementptr inbounds nuw %struct._lv_fpoint_t, ptr %121, i64 %123
  %125 = getelementptr inbounds nuw %struct._lv_fpoint_t, ptr %124, i32 0, i32 1
  %126 = load float, ptr %125, align 4, !tbaa !11
  store float %126, ptr %11, align 4, !tbaa !10
  br label %127

127:                                              ; preds = %120, %111
  br label %128

128:                                              ; preds = %127
  %129 = load i32, ptr %12, align 4, !tbaa !12
  %130 = add i32 %129, 1
  store i32 %130, ptr %12, align 4, !tbaa !12
  br label %58, !llvm.loop !24

131:                                              ; preds = %62
  %132 = load float, ptr %8, align 4, !tbaa !10
  %133 = fptosi float %132 to i32
  %134 = load ptr, ptr %4, align 8, !tbaa !3
  %135 = getelementptr inbounds nuw %struct.lv_area_t, ptr %134, i32 0, i32 0
  store i32 %133, ptr %135, align 4, !tbaa !25
  %136 = load float, ptr %10, align 4, !tbaa !10
  %137 = fptosi float %136 to i32
  %138 = load ptr, ptr %4, align 8, !tbaa !3
  %139 = getelementptr inbounds nuw %struct.lv_area_t, ptr %138, i32 0, i32 1
  store i32 %137, ptr %139, align 4, !tbaa !27
  %140 = load float, ptr %9, align 4, !tbaa !10
  %141 = fptosi float %140 to i32
  %142 = load ptr, ptr %4, align 8, !tbaa !3
  %143 = getelementptr inbounds nuw %struct.lv_area_t, ptr %142, i32 0, i32 2
  store i32 %141, ptr %143, align 4, !tbaa !28
  %144 = load float, ptr %11, align 4, !tbaa !10
  %145 = fptosi float %144 to i32
  %146 = load ptr, ptr %4, align 8, !tbaa !3
  %147 = getelementptr inbounds nuw %struct.lv_area_t, ptr %146, i32 0, i32 3
  store i32 %145, ptr %147, align 4, !tbaa !29
  call void @llvm.lifetime.end.p0(i64 4, ptr %11) #7
  call void @llvm.lifetime.end.p0(i64 4, ptr %10) #7
  call void @llvm.lifetime.end.p0(i64 4, ptr %9) #7
  call void @llvm.lifetime.end.p0(i64 4, ptr %8) #7
  call void @llvm.lifetime.end.p0(i64 8, ptr %7) #7
  store i32 0, ptr %6, align 4
  br label %148

148:                                              ; preds = %131, %36
  call void @llvm.lifetime.end.p0(i64 4, ptr %5) #7
  %149 = load i32, ptr %6, align 4
  switch i32 %149, label %151 [
    i32 0, label %150
    i32 1, label %150
  ]

150:                                              ; preds = %148, %148
  ret void

151:                                              ; preds = %148
  unreachable
}