; Function Attrs: nounwind uwtable
define void @lv_vector_path_get_bounding(ptr noundef %0, ptr noundef %1) local_unnamed_addr #3 {
  %.not = icmp eq ptr %0, null
  br i1 %.not, label %.preheader, label %3

.preheader:                                       ; preds = %2, %.preheader
  br label %.preheader

3:                                                ; preds = %2
  %.not54 = icmp eq ptr %1, null
  br i1 %.not54, label %.preheader55, label %4

.preheader55:                                     ; preds = %3, %.preheader55
  br label %.preheader55

4:                                                ; preds = %3
  %5 = getelementptr inbounds nuw i8, ptr %0, i64 32
  %6 = tail call i32 @lv_array_size(ptr noundef nonnull %5) #9
  %7 = icmp eq i32 %6, 0
  br i1 %7, label %8, label %9

8:                                                ; preds = %4
  tail call void @lv_memset(ptr noundef nonnull %1, i8 noundef zeroext 0, i64 noundef 16) #9
  br label %29

9:                                                ; preds = %4
  %10 = tail call ptr @lv_array_front(ptr noundef nonnull %5) #9
  %11 = load float, ptr %10, align 4, !tbaa !3
  %12 = getelementptr inbounds nuw i8, ptr %10, i64 4
  %13 = load float, ptr %12, align 4, !tbaa !8
  %.not64 = icmp eq i32 %6, 1
  br i1 %.not64, label %._crit_edge, label %.lr.ph.preheader

.lr.ph.preheader:                                 ; preds = %9
  %wide.trip.count = zext i32 %6 to i64
  br label %.lr.ph

._crit_edge:                                      ; preds = %.lr.ph, %9
  %.045.lcssa = phi float [ %11, %9 ], [ %.146, %.lr.ph ]
  %.043.lcssa = phi float [ %11, %9 ], [ %.144, %.lr.ph ]
  %.041.lcssa = phi float [ %13, %9 ], [ %.142, %.lr.ph ]
  %.040.lcssa = phi float [ %13, %9 ], [ %.1, %.lr.ph ]
  %14 = fptosi float %.045.lcssa to i32
  store i32 %14, ptr %1, align 4, !tbaa !21
  %15 = fptosi float %.041.lcssa to i32
  %16 = getelementptr inbounds nuw i8, ptr %1, i64 4
  store i32 %15, ptr %16, align 4, !tbaa !23
  %17 = fptosi float %.043.lcssa to i32
  %18 = getelementptr inbounds nuw i8, ptr %1, i64 8
  store i32 %17, ptr %18, align 4, !tbaa !24
  %19 = fptosi float %.040.lcssa to i32
  %20 = getelementptr inbounds nuw i8, ptr %1, i64 12
  store i32 %19, ptr %20, align 4, !tbaa !25
  br label %29

.lr.ph:                                           ; preds = %.lr.ph.preheader, %.lr.ph
  %indvars.iv = phi i64 [ 1, %.lr.ph.preheader ], [ %indvars.iv.next, %.lr.ph ]
  %.04059 = phi float [ %13, %.lr.ph.preheader ], [ %.1, %.lr.ph ]
  %.04158 = phi float [ %13, %.lr.ph.preheader ], [ %.142, %.lr.ph ]
  %.04357 = phi float [ %11, %.lr.ph.preheader ], [ %.144, %.lr.ph ]
  %.04556 = phi float [ %11, %.lr.ph.preheader ], [ %.146, %.lr.ph ]
  %21 = getelementptr inbounds nuw %struct._lv_fpoint_t, ptr %10, i64 %indvars.iv
  %22 = load float, ptr %21, align 4, !tbaa !3
  %23 = fcmp olt float %22, %.04556
  %.146 = select i1 %23, float %22, float %.04556
  %24 = getelementptr inbounds nuw i8, ptr %21, i64 4
  %25 = load float, ptr %24, align 4, !tbaa !8
  %26 = fcmp olt float %25, %.04158
  %.142 = select i1 %26, float %25, float %.04158
  %27 = fcmp ogt float %22, %.04357
  %.144 = select i1 %27, float %22, float %.04357
  %28 = fcmp ogt float %25, %.04059
  %.1 = select i1 %28, float %25, float %.04059
  %indvars.iv.next = add nuw nsw i64 %indvars.iv, 1
  %exitcond.not = icmp eq i64 %indvars.iv.next, %wide.trip.count
  br i1 %exitcond.not, label %._crit_edge, label %.lr.ph, !llvm.loop !26

29:                                               ; preds = %._crit_edge, %8
  ret void
}